target datalayout = "e-m:e-p270:32:32-p271:32:32-p272:64:64-i64:64-i128:128-f80:128-n8:16:32:64-S128"
target triple = "x86_64-unknown-linux-gnu"

%"struct.rocksdb::(anonymous namespace)::PosixEnv::JoinThreadsOnExit" = type { ptr }

@__dso_handle = external hidden global i8
@_ZZN7rocksdb3Env7DefaultEvE11default_env = internal global ptr null, align 8
@_ZGVZN7rocksdb3Env7DefaultEvE11default_env = internal global i64 0, align 8
@_ZZN7rocksdb3Env7DefaultEvE13thread_joiner = internal global %"struct.rocksdb::(anonymous namespace)::PosixEnv::JoinThreadsOnExit" zeroinitializer, align 8
@_ZGVZN7rocksdb3Env7DefaultEvE13thread_joiner = internal global i64 0, align 8

; Function Attrs: mustprogress nounwind uwtable
define internal void @_ZN7rocksdb12_GLOBAL__N_18PosixEnv17JoinThreadsOnExitC2ERS1_(ptr noundef nonnull align 8 dereferenceable(8) %this, ptr noundef nonnull align 8 dereferenceable(200) %_deflt) unnamed_addr #3 align 2 {
entry:
  %this.addr = alloca ptr, align 8
  %_deflt.addr = alloca ptr, align 8
  store ptr %this, ptr %this.addr, align 8
  store ptr %_deflt, ptr %_deflt.addr, align 8
  %this1 = load ptr, ptr %this.addr, align 8
  %deflt = getelementptr inbounds %"struct.rocksdb::(anonymous namespace)::PosixEnv::JoinThreadsOnExit", ptr %this1, i32 0, i32 0
  %0 = load ptr, ptr %_deflt.addr, align 8
  store ptr %0, ptr %deflt, align 8
  ret void
}

; Function Attrs: mustprogress uwtable
define noundef ptr @_ZN7rocksdb3Env7DefaultEv() #2 align 2 personality ptr @__gxx_personality_v0 {
entry:
  %exn.slot = alloca ptr, align 8
  %ehselector.slot = alloca i32, align 4
  call void @_ZN7rocksdb14ThreadLocalPtr14InitSingletonsEv()
  call void @_ZN7rocksdb23CompressionContextCache13InitSingletonEv()
  %0 = load atomic i8, ptr @_ZGVZN7rocksdb3Env7DefaultEvE11default_env acquire, align 8
  %guard.uninitialized = icmp eq i8 %0, 0
  br i1 %guard.uninitialized, label %init.check, label %init.end, !prof !4

init.check:                                       ; preds = %entry
  %1 = call i32 @__cxa_guard_acquire(ptr @_ZGVZN7rocksdb3Env7DefaultEvE11default_env) #4
  %tobool = icmp ne i32 %1, 0
  br i1 %tobool, label %init, label %init.end

init:                                             ; preds = %init.check
  %call = invoke noalias noundef nonnull ptr @_Znwm(i64 noundef 200) #16
          to label %invoke.cont unwind label %lpad

invoke.cont:                                      ; preds = %init
  invoke void @_ZN7rocksdb12_GLOBAL__N_18PosixEnvC2Ev(ptr noundef nonnull align 8 dereferenceable(200) %call)
          to label %invoke.cont2 unwind label %lpad1

invoke.cont2:                                     ; preds = %invoke.cont
  store ptr %call, ptr @_ZZN7rocksdb3Env7DefaultEvE11default_env, align 8
  call void @__cxa_guard_release(ptr @_ZGVZN7rocksdb3Env7DefaultEvE11default_env) #4
  br label %init.end

init.end:                                         ; preds = %invoke.cont2, %init.check, %entry
  %2 = load atomic i8, ptr @_ZGVZN7rocksdb3Env7DefaultEvE13thread_joiner acquire, align 8
  %guard.uninitialized3 = icmp eq i8 %2, 0
  br i1 %guard.uninitialized3, label %init.check4, label %init.end10, !prof !4

init.check4:                                      ; preds = %init.end
  %3 = call i32 @__cxa_guard_acquire(ptr @_ZGVZN7rocksdb3Env7DefaultEvE13thread_joiner) #4
  %tobool5 = icmp ne i32 %3, 0
  br i1 %tobool5, label %init6, label %init.end10

init6:                                            ; preds = %init.check4
  %4 = load ptr, ptr @_ZZN7rocksdb3Env7DefaultEvE11default_env, align 8
  invoke void @_ZN7rocksdb12_GLOBAL__N_18PosixEnv17JoinThreadsOnExitC2ERS1_(ptr noundef nonnull align 8 dereferenceable(8) @_ZZN7rocksdb3Env7DefaultEvE13thread_joiner, ptr noundef nonnull align 8 dereferenceable(200) %4)
          to label %invoke.cont8 unwind label %lpad7

invoke.cont8:                                     ; preds = %init6
  %5 = call i32 @__cxa_atexit(ptr @_ZN7rocksdb12_GLOBAL__N_18PosixEnv17JoinThreadsOnExitD2Ev, ptr @_ZZN7rocksdb3Env7DefaultEvE13thread_joiner, ptr @__dso_handle) #4
  call void @__cxa_guard_release(ptr @_ZGVZN7rocksdb3Env7DefaultEvE13thread_joiner) #4
  br label %init.end10

init.end10:                                       ; preds = %invoke.cont8, %init.check4, %init.end
  %6 = load ptr, ptr @_ZZN7rocksdb3Env7DefaultEvE11default_env, align 8
  ret ptr %6

lpad:                                             ; preds = %init
  %7 = landingpad { ptr, i32 }
          cleanup
  %8 = extractvalue { ptr, i32 } %7, 0
  store ptr %8, ptr %exn.slot, align 8
  %9 = extractvalue { ptr, i32 } %7, 1
  store i32 %9, ptr %ehselector.slot, align 4
  br label %ehcleanup

lpad1:                                            ; preds = %invoke.cont
  %10 = landingpad { ptr, i32 }
          cleanup
  %11 = extractvalue { ptr, i32 } %10, 0
  store ptr %11, ptr %exn.slot, align 8
  %12 = extractvalue { ptr, i32 } %10, 1
  store i32 %12, ptr %ehselector.slot, align 4
  call void @_ZdlPv(ptr noundef %call) #17
  br label %ehcleanup

ehcleanup:                                        ; preds = %lpad1, %lpad
  call void @__cxa_guard_abort(ptr @_ZGVZN7rocksdb3Env7DefaultEvE11default_env) #4
  br label %eh.resume

lpad7:                                            ; preds = %init6
  %13 = landingpad { ptr, i32 }
          cleanup
  %14 = extractvalue { ptr, i32 } %13, 0
  store ptr %14, ptr %exn.slot, align 8
  %15 = extractvalue { ptr, i32 } %13, 1
  store i32 %15, ptr %ehselector.slot, align 4
  call void @__cxa_guard_abort(ptr @_ZGVZN7rocksdb3Env7DefaultEvE13thread_joiner) #4
  br label %eh.resume

eh.resume:                                        ; preds = %lpad7, %ehcleanup
  %exn = load ptr, ptr %exn.slot, align 8
  %sel = load i32, ptr %ehselector.slot, align 4
  %lpad.val = insertvalue { ptr, i32 } poison, ptr %exn, 0
  %lpad.val11 = insertvalue { ptr, i32 } %lpad.val, i32 %sel, 1
  resume { ptr, i32 } %lpad.val11
}