; Function Attrs: mustprogress uwtable
define noundef ptr @_ZN7rocksdb3Env7DefaultEv() local_unnamed_addr #3 align 2 personality ptr @__gxx_personality_v0 {
entry:
  tail call void @_ZN7rocksdb14ThreadLocalPtr14InitSingletonsEv()
  tail call void @_ZN7rocksdb23CompressionContextCache13InitSingletonEv()
  %0 = load atomic i8, ptr @_ZGVZN7rocksdb3Env7DefaultEvE11default_env acquire, align 8
  %guard.uninitialized = icmp eq i8 %0, 0
  br i1 %guard.uninitialized, label %init.check, label %init.end, !prof !4

init.check:                                       ; preds = %entry
  %1 = tail call i32 @__cxa_guard_acquire(ptr nonnull @_ZGVZN7rocksdb3Env7DefaultEvE11default_env) #22
  %tobool.not = icmp eq i32 %1, 0
  br i1 %tobool.not, label %init.end, label %init

init:                                             ; preds = %init.check
  %call = invoke noalias noundef nonnull dereferenceable(200) ptr @_Znwm(i64 noundef 200) #23
          to label %invoke.cont unwind label %lpad

invoke.cont:                                      ; preds = %init
  invoke fastcc void @_ZN7rocksdb12_GLOBAL__N_18PosixEnvC2Ev(ptr noundef nonnull align 8 dereferenceable(200) %call)
          to label %invoke.cont2 unwind label %lpad1

invoke.cont2:                                     ; preds = %invoke.cont
  store ptr %call, ptr @_ZZN7rocksdb3Env7DefaultEvE11default_env, align 8
  tail call void @__cxa_guard_release(ptr nonnull @_ZGVZN7rocksdb3Env7DefaultEvE11default_env) #22
  br label %init.end

init.end:                                         ; preds = %invoke.cont2, %init.check, %entry
  %2 = load atomic i8, ptr @_ZGVZN7rocksdb3Env7DefaultEvE13thread_joiner acquire, align 8
  %guard.uninitialized3 = icmp eq i8 %2, 0
  br i1 %guard.uninitialized3, label %init.check4, label %init.end10, !prof !4

init.check4:                                      ; preds = %init.end
  %3 = tail call i32 @__cxa_guard_acquire(ptr nonnull @_ZGVZN7rocksdb3Env7DefaultEvE13thread_joiner) #22
  %tobool5.not = icmp eq i32 %3, 0
  br i1 %tobool5.not, label %init.end10, label %init6

init6:                                            ; preds = %init.check4
  %4 = load ptr, ptr @_ZZN7rocksdb3Env7DefaultEvE11default_env, align 8
  store ptr %4, ptr @_ZZN7rocksdb3Env7DefaultEvE13thread_joiner, align 8
  %5 = tail call i32 @__cxa_atexit(ptr nonnull @_ZN7rocksdb12_GLOBAL__N_18PosixEnv17JoinThreadsOnExitD2Ev, ptr nonnull @_ZZN7rocksdb3Env7DefaultEvE13thread_joiner, ptr nonnull @__dso_handle) #22
  tail call void @__cxa_guard_release(ptr nonnull @_ZGVZN7rocksdb3Env7DefaultEvE13thread_joiner) #22
  br label %init.end10

init.end10:                                       ; preds = %init6, %init.check4, %init.end
  %6 = load ptr, ptr @_ZZN7rocksdb3Env7DefaultEvE11default_env, align 8
  ret ptr %6

lpad:                                             ; preds = %init
  %7 = landingpad { ptr, i32 }
          cleanup
  br label %ehcleanup

lpad1:                                            ; preds = %invoke.cont
  %8 = landingpad { ptr, i32 }
          cleanup
  tail call void @_ZdlPv(ptr noundef nonnull %call) #24
  br label %ehcleanup

ehcleanup:                                        ; preds = %lpad1, %lpad
  %.pn = phi { ptr, i32 } [ %8, %lpad1 ], [ %7, %lpad ]
  tail call void @__cxa_guard_abort(ptr nonnull @_ZGVZN7rocksdb3Env7DefaultEvE11default_env) #22
  resume { ptr, i32 } %.pn
}